target datalayout = "e-m:e-p270:32:32-p271:32:32-p272:64:64-i64:64-i128:128-f80:128-n8:16:32:64-S128"
target triple = "x86_64-pc-linux-gnu"

%struct.pack_info_t = type { [256 x i8], [6 x %struct.filter_info_t], i32, i32, %struct.chunk_info_t, i64 }
%struct.filter_info_t = type { i32, i32, [20 x i32], i64 }
%struct.chunk_info_t = type { [32 x i64], i32 }
%struct.pack_opttbl_t = type { i32, i32, ptr }

@.str.5 = private unnamed_addr constant [2 x i8] c"/\00", align 1

; Function Attrs: nounwind uwtable
define dso_local ptr @options_get_object(ptr noundef %0, ptr noundef %1) #0 {
  %3 = alloca ptr, align 8
  %4 = alloca ptr, align 8
  %5 = alloca ptr, align 8
  %6 = alloca i32, align 4
  %7 = alloca [257 x i8], align 16
  %8 = alloca i32, align 4
  store ptr %0, ptr %4, align 8, !tbaa !45
  store ptr %1, ptr %5, align 8, !tbaa !4
  call void @llvm.lifetime.start.p0(i64 4, ptr %6) #9
  call void @llvm.lifetime.start.p0(i64 257, ptr %7) #9
  store i32 0, ptr %6, align 4, !tbaa !8
  br label %9

9:                                                ; preds = %63, %2
  %10 = load i32, ptr %6, align 4, !tbaa !8
  %11 = load ptr, ptr %5, align 8, !tbaa !4
  %12 = getelementptr inbounds nuw %struct.pack_opttbl_t, ptr %11, i32 0, i32 1
  %13 = load i32, ptr %12, align 4, !tbaa !28
  %14 = icmp ult i32 %10, %13
  br i1 %14, label %15, label %66

15:                                               ; preds = %9
  %16 = load ptr, ptr %5, align 8, !tbaa !4
  %17 = getelementptr inbounds nuw %struct.pack_opttbl_t, ptr %16, i32 0, i32 2
  %18 = load ptr, ptr %17, align 8, !tbaa !29
  %19 = load i32, ptr %6, align 4, !tbaa !8
  %20 = zext i32 %19 to i64
  %21 = getelementptr inbounds nuw %struct.pack_info_t, ptr %18, i64 %20
  %22 = getelementptr inbounds nuw %struct.pack_info_t, ptr %21, i32 0, i32 0
  %23 = getelementptr inbounds [256 x i8], ptr %22, i64 0, i64 0
  %24 = call i32 @strncmp(ptr noundef %23, ptr noundef @.str.5, i64 noundef 1) #11
  %25 = icmp ne i32 %24, 0
  br i1 %25, label %26, label %39

26:                                               ; preds = %15
  %27 = getelementptr inbounds [257 x i8], ptr %7, i64 0, i64 0
  %28 = call ptr @strcpy(ptr noundef %27, ptr noundef @.str.5) #9
  %29 = getelementptr inbounds [257 x i8], ptr %7, i64 0, i64 0
  %30 = load ptr, ptr %5, align 8, !tbaa !4
  %31 = getelementptr inbounds nuw %struct.pack_opttbl_t, ptr %30, i32 0, i32 2
  %32 = load ptr, ptr %31, align 8, !tbaa !29
  %33 = load i32, ptr %6, align 4, !tbaa !8
  %34 = zext i32 %33 to i64
  %35 = getelementptr inbounds nuw %struct.pack_info_t, ptr %32, i64 %34
  %36 = getelementptr inbounds nuw %struct.pack_info_t, ptr %35, i32 0, i32 0
  %37 = getelementptr inbounds [256 x i8], ptr %36, i64 0, i64 0
  %38 = call ptr @strcat(ptr noundef %29, ptr noundef %37) #9
  br label %50

39:                                               ; preds = %15
  %40 = getelementptr inbounds [257 x i8], ptr %7, i64 0, i64 0
  %41 = load ptr, ptr %5, align 8, !tbaa !4
  %42 = getelementptr inbounds nuw %struct.pack_opttbl_t, ptr %41, i32 0, i32 2
  %43 = load ptr, ptr %42, align 8, !tbaa !29
  %44 = load i32, ptr %6, align 4, !tbaa !8
  %45 = zext i32 %44 to i64
  %46 = getelementptr inbounds nuw %struct.pack_info_t, ptr %43, i64 %45
  %47 = getelementptr inbounds nuw %struct.pack_info_t, ptr %46, i32 0, i32 0
  %48 = getelementptr inbounds [256 x i8], ptr %47, i64 0, i64 0
  %49 = call ptr @strcpy(ptr noundef %40, ptr noundef %48) #9
  br label %50

50:                                               ; preds = %39, %26
  %51 = getelementptr inbounds [257 x i8], ptr %7, i64 0, i64 0
  %52 = load ptr, ptr %4, align 8, !tbaa !45
  %53 = call i32 @strcmp(ptr noundef %51, ptr noundef %52) #11
  %54 = icmp eq i32 %53, 0
  br i1 %54, label %55, label %62

55:                                               ; preds = %50
  %56 = load ptr, ptr %5, align 8, !tbaa !4
  %57 = getelementptr inbounds nuw %struct.pack_opttbl_t, ptr %56, i32 0, i32 2
  %58 = load ptr, ptr %57, align 8, !tbaa !29
  %59 = load i32, ptr %6, align 4, !tbaa !8
  %60 = zext i32 %59 to i64
  %61 = getelementptr inbounds nuw %struct.pack_info_t, ptr %58, i64 %60
  store ptr %61, ptr %3, align 8
  store i32 1, ptr %8, align 4
  br label %67

62:                                               ; preds = %50
  br label %63

63:                                               ; preds = %62
  %64 = load i32, ptr %6, align 4, !tbaa !8
  %65 = add i32 %64, 1
  store i32 %65, ptr %6, align 4, !tbaa !8
  br label %9, !llvm.loop !47

66:                                               ; preds = %9
  store ptr null, ptr %3, align 8
  store i32 1, ptr %8, align 4
  br label %67

67:                                               ; preds = %66, %55
  call void @llvm.lifetime.end.p0(i64 257, ptr %7) #9
  call void @llvm.lifetime.end.p0(i64 4, ptr %6) #9
  %68 = load ptr, ptr %3, align 8
  ret ptr %68
}