; Function Attrs: nofree nounwind memory(readwrite, inaccessiblemem: none) uwtable
define dso_local noundef ptr @options_get_object(ptr noundef readonly captures(none) %0, ptr noundef readonly captures(none) %1) local_unnamed_addr #11 {
  %3 = alloca [257 x i8], align 16
  call void @llvm.lifetime.start.p0(i64 257, ptr nonnull %3) #17
  %4 = getelementptr inbounds nuw i8, ptr %1, i64 4
  %5 = load i32, ptr %4, align 4, !tbaa !26
  %.not16 = icmp eq i32 %5, 0
  br i1 %.not16, label %._crit_edge, label %.lr.ph

.lr.ph:                                           ; preds = %2
  %6 = getelementptr inbounds nuw i8, ptr %1, i64 8
  %7 = load ptr, ptr %6, align 8, !tbaa !27
  %wide.trip.count = zext i32 %5 to i64
  br label %9

8:                                                ; preds = %15
  %indvars.iv.next = add nuw nsw i64 %indvars.iv, 1
  %exitcond.not = icmp eq i64 %indvars.iv.next, %wide.trip.count
  br i1 %exitcond.not, label %._crit_edge, label %9, !llvm.loop !38

9:                                                ; preds = %.lr.ph, %8
  %indvars.iv = phi i64 [ 0, %.lr.ph ], [ %indvars.iv.next, %8 ]
  %10 = getelementptr inbounds nuw %struct.pack_info_t, ptr %7, i64 %indvars.iv
  %lhsc = load i8, ptr %10, align 1
  %.not = icmp eq i8 %lhsc, 47
  br i1 %.not, label %13, label %11

11:                                               ; preds = %9
  store i16 47, ptr %3, align 16
  %12 = call ptr @strcat(ptr noundef nonnull dereferenceable(1) %3, ptr noundef nonnull dereferenceable(1) %10) #17
  br label %15

13:                                               ; preds = %9
  %14 = call ptr @strcpy(ptr noundef nonnull dereferenceable(1) %3, ptr noundef nonnull dereferenceable(1) %10) #17
  br label %15

15:                                               ; preds = %13, %11
  %16 = call i32 @strcmp(ptr noundef nonnull dereferenceable(1) %3, ptr noundef nonnull dereferenceable(1) %0) #19
  %17 = icmp eq i32 %16, 0
  br i1 %17, label %._crit_edge, label %8

._crit_edge:                                      ; preds = %8, %15, %2
  %.012 = phi ptr [ null, %2 ], [ %10, %15 ], [ null, %8 ]
  call void @llvm.lifetime.end.p0(i64 257, ptr nonnull %3) #17
  ret ptr %.012
}